Open Watcom Linker Version 2.0 beta May  3 2025 18:23:37
Copyright (c) 2002-2025 The Open Watcom Contributors. All Rights Reserved.
Portions Copyright (c) 1985-2002 Sybase, Inc. All Rights Reserved.
Created on:       26/03/15 22:28:08
Executable Image: TEST.exe
creating a DOS executable


                        +------------+
                        |   Groups   |
                        +------------+

Group                           Address              Size
=====                           =======              ====

DGROUP                          0588:0000            000024c0



                        +--------------+
                        |   Segments   |
                        +--------------+

Segment                Class          Group          Address         Size
=======                =====          =====          =======         ====

bios_keyboard_services_TEXT CODE      AUTO           0000:0000       00000071
bios_memory_services_TEXT CODE        AUTO           0000:0071       00000022
dos_file_services_TEXT CODE           AUTO           0000:0093       000002c6
dos_file_tools_TEXT    CODE           AUTO           0000:0359       00000173
dos_memory_services_TEXT CODE         AUTO           0000:04cc       000000d9
dos_memory_tools_TEXT  CODE           AUTO           0000:05a5       000000d2
dos_services_TEXT      CODE           AUTO           0000:0677       00000084
main_TEXT              CODE           AUTO           0000:06fb       000021e2
_TEXT                  CODE           AUTO           0000:28e0       00002f92
FAR_DATA               FAR_DATA       AUTO           0587:0002       00000000
_NULL                  BEGDATA        DGROUP         0588:0000       00000020
_AFTERNULL             BEGDATA        DGROUP         058a:0000       00000002
CONST                  DATA           DGROUP         058a:0002       000018b6
CONST2                 DATA           DGROUP         0715:0008       00000000
_DATA                  DATA           DGROUP         0715:0008       000002ac
XIB                    DATA           DGROUP         0740:0004       00000000
XI                     DATA           DGROUP         0740:0004       00000012
XIE                    DATA           DGROUP         0741:0006       00000000
YIB                    DATA           DGROUP         0741:0006       00000000
YI                     DATA           DGROUP         0741:0006       00000006
YIE                    DATA           DGROUP         0741:000c       00000000
DATA                   DATA           DGROUP         0741:000c       00000000
_BSS                   BSS            DGROUP         0741:000c       0000011a
STACK                  STACK          DGROUP         0754:0000       00000800


                        +----------------+
                        |   Memory Map   |
                        +----------------+

* = unreferenced symbol
+ = symbol only referenced locally

Address        Symbol
=======        ======

Module: CMakeFiles/TEST.dir/BIOS/bios_keyboard_services.c.obj(bios_keyboard_services)
0000:0000      bios_wait_for_keystroke_and_read_
0000:0027      bios_get_keystroke_status_
0000:0050      bios_get_keyboard_flags_
Module: CMakeFiles/TEST.dir/BIOS/bios_memory_services.c.obj(bios_memory_services)
0000:0071      bios_get_startup_memory_kb_
Module: CMakeFiles/TEST.dir/DOS/dos_file_services.c.obj(dos_file_services)
0000:0093      dos_get_disk_free_space_
0000:00eb      dos_create_file_
0000:012e      dos_open_file_
0000:016a      dos_close_file_
0000:019a      dos_read_file_
0000:01e6      dos_write_file_
0000:0227      dos_delete_file_
0000:025a      dos_move_file_pointer_
0000:02a8      dos_get_file_attributes_
0000:02e9*     dos_set_file_attributes_
0000:0325      dos_rename_file_
Module: CMakeFiles/TEST.dir/DOS/dos_file_tools.c.obj(dos_file_tools)
0000:0359      dos_file_exists_
0000:0379      dos_file_is_eof_
0000:03fe      dos_file_size_
0000:0469      dos_file_ext_
Module: CMakeFiles/TEST.dir/DOS/dos_memory_services.c.obj(dos_memory_services)
0000:04cc      dos_allocate_memory_blocks_
0000:051a      dos_free_allocated_memory_blocks_
0000:0557      dos_get_free_memory_paragraphs_
Module: CMakeFiles/TEST.dir/DOS/dos_memory_tools.c.obj(dos_memory_tools)
0000:05a5      dos_memcmp_
0000:0603      dos_memmem_
Module: CMakeFiles/TEST.dir/DOS/dos_services.c.obj(dos_services)
0000:0677      dos_set_interrupt_vector_
0000:06a3      dos_get_interrupt_vector_
0000:06de      dos_terminate_process_with_return_code_
Module: CMakeFiles/TEST.dir/main.c.obj(main)
0000:06fb+     test_bios_memory_
0000:0804+     test_bios_keys_
0000:0b77+     test_allocate_memory_
0000:0cc3+     test_free_memory_
0000:0da7+     test_get_free_memory_
0000:0ee9+     test_dos_memcmp_
0000:1095+     test_dos_memmem_
0000:138c*     test_dos_memory_
0000:13bb+     test_interrupt_vectors_
0000:1587*     test_dos_services_
0000:158b+     test_terminate_process_
0000:15c0+     test_dos_files_
0000:28a8      main_
Module: /opt/watcom/lib286/dos/clibl.lib(cmodel)
0000:28e0      _big_code_
0000:28e0*     CodeModelMismatch
Module: /opt/watcom/lib286/dos/clibl.lib(printf)
0000:28e0      printf_
Module: /opt/watcom/lib286/dos/clibl.lib(assert99)
0000:2901      _assert99_
0000:2a9e*     __assert99_
Module: /opt/watcom/lib286/dos/clibl.lib(iob)
0588:197e      ___iob
0588:1b9c      ___OpenStreams
0588:1ba0      ___ClosedStreams
Module: /opt/watcom/lib286/dos/clibl.lib(fgetc)
0000:2ad3+     __fill_buffer_
0000:2bc8      fgetc_
Module: /opt/watcom/lib286/dos/clibl.lib(strncmp)
0000:2c72      strncmp_
Module: /opt/watcom/lib286/dos/clibl.lib(cstart)
0588:0000*     __nullarea
0588:1ae6*     __ovlflag
0588:1ae7*     __intno
0588:1ae8*     __ovlvec
0000:2cb0      _cstart_
0000:2e61      __exit_
0000:2e7e      __do_exit_with_msg_
0000:2f5d      __GETDS
Module: /opt/watcom/lib286/dos/clibl.lib(fprtf)
0000:2f83      __fprtf_
Module: /opt/watcom/lib286/dos/clibl.lib(_snprint)
0000:3080+     _vsnprintf_
0000:30e5      _snprintf_
Module: /opt/watcom/lib286/dos/clibl.lib(enterdb)
0000:3106      __EnterWVIDEO_
0588:1aec      __WD_Present
Module: /opt/watcom/lib286/dos/clibl.lib(stack086)
0000:312a      stackavail_
Module: /opt/watcom/lib286/dos/clibl.lib(sprintf)
0000:313e      sprintf_
Module: /opt/watcom/lib286/dos/clibl.lib(rterrmsg)
0000:315f      __rterr_msg_
Module: /opt/watcom/lib286/dos/clibl.lib(abort)
0000:3192      abort_
0000:31aa*     __terminate_
0588:1aee+     ___abort
Module: /opt/watcom/lib286/dos/clibl.lib(initfile)
0000:31b8      __InitFiles_
Module: /opt/watcom/lib286/dos/clibl.lib(ioexit)
0000:3313*     fcloseall_
0000:331a      __full_io_exit_
Module: /opt/watcom/lib286/dos/clibl.lib(flushall)
0000:3324      __flushall_
0000:3381*     flushall_
Module: /opt/watcom/lib286/dos/clibl.lib(gtche)
0000:3386      getche_
Module: /opt/watcom/lib286/dos/clibl.lib(ioalloc)
0000:33a0      __ioalloc_
Module: /opt/watcom/lib286/dos/clibl.lib(qread)
0000:343a      __qread_
Module: /opt/watcom/lib286/dos/clibl.lib(errno)
0000:345a      __get_errno_ptr_
0588:1ba4+     _errno
Module: /opt/watcom/lib286/dos/clibl.lib(xmsg)
0000:3461*     __exit_with_msg_
0000:3466      __fatal_runtime_error_
Module: /opt/watcom/lib286/dos/clibl.lib(cmain086)
0000:3480      __CMain
Module: /opt/watcom/lib286/dos/clibl.lib(initrtns)
0000:34d2      __InitRtns
0000:34d2*     __FInitRtns
0000:3529      __FiniRtns
0000:3529*     __FFiniRtns
Module: /opt/watcom/lib286/dos/clibl.lib(crwdata)
0588:1af2      __curbrk
0588:1afa      __STACKLOW
0588:1afc      __STACKTOP
0588:1afe      __cbyte
0588:1b00      __child
0588:1b02      __no87
0588:1b0f      ___FPE_handler
0588:1af4      __psp
0588:1b03      __get_ovl_stack
0588:1b07      __restore_ovl_stack
0588:1b0b      __close_ovl_file
0588:1b13      __LpCmdLine
0588:1b17      __LpPgmName
0588:1af6      __osmajor
0588:1af7      __osminor
0588:1af8      __osmode
0588:1af9      __HShift
Module: /opt/watcom/lib286/dos/clibl.lib(uselfn)
0588:1b1c      ___uselfn
Module: /opt/watcom/lib286/dos/clibl.lib(dosseg)
0000:358a      __DOSseg__
Module: /opt/watcom/lib286/dos/clibl.lib(fputc)
0000:358b      fputc_
Module: /opt/watcom/lib286/dos/clibl.lib(prtf)
0000:41b3      __prtf_
Module: /opt/watcom/lib286/dos/clibl.lib(flush)
0000:43eb      __flush_
Module: /opt/watcom/lib286/dos/clibl.lib(vsprintf)
0000:453c      vsprintf_
Module: /opt/watcom/lib286/dos/clibl.lib(fputs)
0000:4567      fputs_
Module: /opt/watcom/lib286/dos/clibl.lib(nmalloc)
0000:4606      _nmalloc_
0588:1b1e      ___nheapbeg
0588:1b20      ___MiniHeapRover
0588:1b22      ___LargestSizeB4MiniHeapRover
Module: /opt/watcom/lib286/dos/clibl.lib(fmalloc)
0000:46dd*     _fmalloc_
0000:46dd      malloc_
0588:1b24+     ___fheapbeg
0588:1b26      ___fheapRover
0588:1b28      ___LargestSizeB4Rover
Module: /opt/watcom/lib286/dos/clibl.lib(fclose)
0000:47ed+     __doclose_
0000:48b1      __shutdown_stream_
0000:48cb*     fclose_
0588:1ba6+     ___RmTmpFileFn
Module: /opt/watcom/lib286/dos/clibl.lib(freefp)
0000:4916      __freefp_
0000:498b      __purgefp_
Module: /opt/watcom/lib286/dos/clibl.lib(chktty)
0000:49c7      __chktty_
Module: /opt/watcom/lib286/dos/clibl.lib(dosret)
0000:49f2      __set_errno_dos_
0000:4a7e*     __set_errno_dos_reterr_
Module: /opt/watcom/lib286/dos/clibl.lib(___argc)
0588:1baa      ____Argv
0588:1bae      ____Argc
Module: /opt/watcom/lib286/dos/clibl.lib(exit)
0000:4a89+     __null_int23_exit_
0000:4a8a      exit_
0000:4ab9*     _exit_
0588:1b3e+     ___int23_exit
0588:1b42+     ___FPE_handler_exit
Module: /opt/watcom/lib286/dos/clibl.lib(sgdef086)
0588:1b84      __Start_XI
0588:1b96      __End_XI
0588:1b96      __Start_YI
0588:1b9c      __End_YI
Module: /opt/watcom/lib286/dos/clibl.lib(wctomb)
0000:4ad2      wctomb_
Module: /opt/watcom/lib286/dos/clibl.lib(itoa)
0000:4afb+     utoa_
0000:4b58      itoa_
Module: /opt/watcom/lib286/dos/clibl.lib(i4m)
0000:4b7c*     __I4M
0000:4b7c      __U4M
Module: /opt/watcom/lib286/dos/clibl.lib(noefgfmt)
0588:1b46      ___EFG_printf
0588:1b4a*     ___EFG_scanf
Module: /opt/watcom/lib286/dos/clibl.lib(lltoa)
0000:4ba4      ulltoa_
0000:4c88*     lltoa_
Module: /opt/watcom/lib286/dos/clibl.lib(strupr)
0000:4cea      _strupr_
Module: /opt/watcom/lib286/dos/clibl.lib(ltoa)
0000:4d0c      ultoa_
0000:4d7b*     ltoa_
Module: /opt/watcom/lib286/dos/clibl.lib(mbisdbcs)
0588:1b4e      ___IsDBCS
Module: /opt/watcom/lib286/dos/clibl.lib(mbislead)
0000:4daa*     _ismbblead_
0588:1bb0      ___MBCSIsTable
Module: /opt/watcom/lib286/dos/clibl.lib(__lseek)
0000:4dc6      __lseek_
Module: /opt/watcom/lib286/dos/clibl.lib(qwrit)
0000:4e00      __qwrite_
Module: /opt/watcom/lib286/dos/clibl.lib(fsync)
0000:4e62      fsync_
Module: /opt/watcom/lib286/dos/clibl.lib(mem)
0000:4e70      __MemAllocator
0000:4f36      __MemFree
Module: /opt/watcom/lib286/dos/clibl.lib(nmemneed)
0000:50ad      __nmemneed_
Module: /opt/watcom/lib286/dos/clibl.lib(grownear)
0000:512f      __LastFree_
0000:51a7      __ExpandDGROUP_
Module: /opt/watcom/lib286/dos/clibl.lib(growseg)
0000:52ac      __GrowSeg_
Module: /opt/watcom/lib286/dos/clibl.lib(allocseg)
0000:537b      __AllocSeg_
Module: /opt/watcom/lib286/dos/clibl.lib(fmemneed)
0000:541a      __fmemneed_
Module: /opt/watcom/lib286/dos/clibl.lib(heapgrow)
0000:541d*     _heapgrow_
0000:541d*     _fheapgrow_
0000:541e      _nheapgrow_
Module: /opt/watcom/lib286/dos/clibl.lib(_clse)
0000:5495      __close_
Module: /opt/watcom/lib286/dos/clibl.lib(ffree)
0000:54cd*     _ffree_
0000:54cd      free_
Module: /opt/watcom/lib286/dos/clibl.lib(isatt)
0000:5515      isatty_
Module: /opt/watcom/lib286/dos/clibl.lib(doserrno)
0000:5531      __get_doserrno_ptr_
0588:1cb2+     __doserrno
Module: /opt/watcom/lib286/dos/clibl.lib(alphabet)
0000:5538      ___Alphabet
Module: /opt/watcom/lib286/dos/clibl.lib(mbinit)
0000:55c2      __mbinit_
0588:1b50+     ___MBCodePage
Module: /opt/watcom/lib286/dos/clibl.lib(iomode)
0000:5637      __GetIOMode_
0000:565c      __SetIOMode_nogrow_
0588:1b52+     ___NFiles
0588:1b54+     ___init_mode
0588:1b7c+     ___io_mode
Module: /opt/watcom/lib286/dos/clibl.lib(filedos)
0000:567f*     _dos_close_
0000:568d      _dos_commit_
Module: /opt/watcom/lib286/dos/clibl.lib(amblksiz)
0588:1b80      __amblksiz
Module: /opt/watcom/lib286/dos/clibl.lib(heapen)
0000:569c*     _heapenable_
0588:1b82      ___heap_enabled
Module: /opt/watcom/lib286/dos/clibl.lib(sbrk)
0000:56ad      __brk_
0000:5712*     sbrk_
Module: /opt/watcom/lib286/dos/clibl.lib(nfree)
0000:5722      _nfree_
0588:1cb4+     ___MiniHeapFreeRover
Module: /opt/watcom/lib286/dos/clibl.lib(getltdos)
0000:581f      dos_get_dbcs_lead_table_
Module: /opt/watcom/lib286/dos/clibl.lib(getcpdos)
0000:5848      dos_get_code_page_
Module: /opt/watcom/lib286/dos/clibl.lib(doserror)
0000:5858      __doserror_
0000:5866*     __doserror1_


                        +--------------------+
                        |   Libraries Used   |
                        +--------------------+

/opt/watcom/lib286/dos/clibl.lib


                        +-----------------------+
                        |   Linker Statistics   |
                        +-----------------------+

Stack size:  0800 (2048.)
Memory size:  7d40 (32064.)
Entry point address: 0000:2cb0
Link time: 00:00.13
