Open Watcom Linker Version 2.0 beta May  3 2025 18:23:37
Copyright (c) 2002-2025 The Open Watcom Contributors. All Rights Reserved.
Portions Copyright (c) 1985-2002 Sybase, Inc. All Rights Reserved.
Created on:       26/03/17 15:56:17
Executable Image: TEST.exe
creating a DOS executable


                        +------------+
                        |   Groups   |
                        +------------+

Group                           Address              Size
=====                           =======              ====

DGROUP                          0215:0000            00000a80



                        +--------------+
                        |   Segments   |
                        +--------------+

Segment                Class          Group          Address         Size
=======                =====          =====          =======         ====

bios_keyboard_services_TEXT CODE      AUTO           0000:0000       0000007e
bios_memory_services_TEXT CODE        AUTO           0000:007e       0000002d
dos_file_services_TEXT CODE           AUTO           0000:00ab       00000328
dos_file_tools_TEXT    CODE           AUTO           0000:03d3       000002fc
dos_memory_services_TEXT CODE         AUTO           0000:06cf       00000116
dos_services_TEXT      CODE           AUTO           0000:07e5       00000091
dos_errno_TEXT         CODE           AUTO           0000:0876       0000003b
dos_stdio_TEXT         CODE           AUTO           0000:08b1       00000aeb
dos_stdlib_TEXT        CODE           AUTO           0000:139c       0000019b
dos_string_TEXT        CODE           AUTO           0000:1537       000006ac
main_TEXT              CODE           AUTO           0000:1be3       00000049
_TEXT                  CODE           AUTO           0000:1c2c       00000521
FAR_DATA               FAR_DATA       AUTO           0214:000d       00000000
_NULL                  BEGDATA        DGROUP         0215:0000       00000020
_AFTERNULL             BEGDATA        DGROUP         0217:0000       00000002
CONST                  DATA           DGROUP         0217:0002       000001f2
CONST2                 DATA           DGROUP         0236:0004       00000013
_DATA                  DATA           DGROUP         0237:0008       0000004a
XIB                    DATA           DGROUP         023c:0002       00000000
XI                     DATA           DGROUP         023c:0002       00000000
XIE                    DATA           DGROUP         023c:0002       00000000
YIB                    DATA           DGROUP         023c:0002       00000000
YI                     DATA           DGROUP         023c:0002       00000000
YIE                    DATA           DGROUP         023c:0002       00000000
DATA                   DATA           DGROUP         023c:0002       00000000
_BSS                   BSS            DGROUP         023c:0002       00000006
STACK                  STACK          DGROUP         023d:0000       00000800


                        +----------------+
                        |   Memory Map   |
                        +----------------+

* = unreferenced symbol
+ = symbol only referenced locally

Address        Symbol
=======        ======

Module: CMakeFiles/TEST.dir/BIOS/bios_keyboard_services.c.obj(/Users/jeremythornton/dosbox/cspjst/DOSLIBC/src/BIOS/bios_keyboard_services.c)
0000:0000+     bios_wait_for_keystroke_and_read_
0000:0026+     bios_get_keystroke_status_
0000:0056+     bios_get_keyboard_flags_
Module: CMakeFiles/TEST.dir/BIOS/bios_memory_services.c.obj(/Users/jeremythornton/dosbox/cspjst/DOSLIBC/src/BIOS/bios_memory_services.c)
0000:007e+     bios_get_startup_memory_kb_
Module: CMakeFiles/TEST.dir/DOS/dos_file_services.c.obj(/Users/jeremythornton/dosbox/cspjst/DOSLIBC/src/DOS/dos_file_services.c)
0000:00ab+     dos_get_disk_free_space_
0000:0107+     dos_create_file_
0000:0150+     dos_open_file_
0000:0199+     dos_close_file_
0000:01d1      dos_read_file_
0000:0225+     dos_write_file_
0000:0279+     dos_delete_file_
0000:02b2      dos_move_file_pointer_
0000:030d      dos_get_file_attributes_
0000:0352+     dos_set_file_attributes_
0000:0392+     dos_rename_file_
Module: CMakeFiles/TEST.dir/DOS/dos_file_tools.c.obj(/Users/jeremythornton/dosbox/cspjst/DOSLIBC/src/DOS/dos_file_tools.c)
0000:03d3+     dos_file_exists_
0000:041e+     dos_file_is_eof_
0000:0502+     dos_file_size_
0000:05cc+     dos_file_ext_
Module: CMakeFiles/TEST.dir/DOS/dos_memory_services.c.obj(/Users/jeremythornton/dosbox/cspjst/DOSLIBC/src/DOS/dos_memory_services.c)
0000:06cf      dos_allocate_memory_blocks_
0000:072d      dos_free_allocated_memory_blocks_
0000:077a+     dos_get_free_memory_paragraphs_
Module: CMakeFiles/TEST.dir/DOS/dos_services.c.obj(/Users/jeremythornton/dosbox/cspjst/DOSLIBC/src/DOS/dos_services.c)
0000:07e5+     dos_set_interrupt_vector_
0000:080f+     dos_get_interrupt_vector_
0000:0856      dos_terminate_process_with_return_code_
Module: CMakeFiles/TEST.dir/STD/dos_errno.c.obj(/Users/jeremythornton/dosbox/cspjst/DOSLIBC/src/STD/dos_errno.c)
0000:0876      dos_to_errno_
0215:0228      _errno
Module: CMakeFiles/TEST.dir/STD/dos_stdio.c.obj(/Users/jeremythornton/dosbox/cspjst/DOSLIBC/src/STD/dos_stdio.c)
0000:0ba9+     fputc_
0000:0c70+     fputs_
0000:0ccf      fprintf_
0000:1161+     printf__
0000:11a5+     fgetc_
0000:120c+     fgets_
0000:1307+     perror_
Module: CMakeFiles/TEST.dir/STD/dos_stdlib.c.obj(/Users/jeremythornton/dosbox/cspjst/DOSLIBC/src/STD/dos_stdlib.c)
0000:139c+     dos_malloc_
0000:1413+     dos_free_
0000:14ad+     dos_calloc_
Module: CMakeFiles/TEST.dir/STD/dos_string.c.obj(/Users/jeremythornton/dosbox/cspjst/DOSLIBC/src/STD/dos_string.c)
0000:1537+     strlen_
0000:1591+     strcmp_
0000:15fd+     strncmp_
0000:16da+     strchr_
0000:1750+     strrchr_
0000:17cf+     memcmp_
0000:18bc+     memset_
0000:1939+     memcpy_
0000:19dd+     memmem_
0000:1af9      strerror_
Module: CMakeFiles/TEST.dir/main.c.obj(/Users/jeremythornton/dosbox/cspjst/DOSLIBC/src/main.c)
0000:1be3      main_
Module: /opt/watcom/lib286/dos/clibl.lib(cmodel)
0000:1c2c      _big_code_
0000:1c2c*     CodeModelMismatch
Module: /opt/watcom/lib286/dos/clibl.lib(i4d)
0000:1c2c*     __I4D
0000:1c7b      __U4D
Module: /opt/watcom/lib286/dos/clibl.lib(cstart)
0215:0000*     __nullarea
0215:0236*     __ovlflag
0215:0237*     __intno
0215:0238*     __ovlvec
0000:1d00      _cstart_
0000:1eb1      __exit_
0000:1ece      __do_exit_with_msg_
0000:1fad      __GETDS
Module: /opt/watcom/lib286/dos/clibl.lib(xmsg)
0000:1fb7*     __exit_with_msg_
0000:1fbc      __fatal_runtime_error_
Module: /opt/watcom/lib286/dos/clibl.lib(cmain086)
0000:1fd6      __CMain
Module: /opt/watcom/lib286/dos/clibl.lib(initrtns)
0000:2028      __InitRtns
0000:2028*     __FInitRtns
0000:207f      __FiniRtns
0000:207f*     __FFiniRtns
Module: /opt/watcom/lib286/dos/clibl.lib(crwdata)
0215:023c      __curbrk
0215:0244      __STACKLOW
0215:0246      __STACKTOP
0215:0248      __cbyte
0215:024a      __child
0215:024c      __no87
0215:0259      ___FPE_handler
0215:023e      __psp
0215:024d      __get_ovl_stack
0215:0251      __restore_ovl_stack
0215:0255      __close_ovl_file
0215:025d      __LpCmdLine
0215:0261      __LpPgmName
0215:0240      __osmajor
0215:0241      __osminor
0215:0242      __osmode
0215:0243      __HShift
Module: /opt/watcom/lib286/dos/clibl.lib(uselfn)
0215:0266      ___uselfn
Module: /opt/watcom/lib286/dos/clibl.lib(dosseg)
0000:20e0      __DOSseg__
Module: /opt/watcom/lib286/dos/clibl.lib(enterdb)
0000:20e1      __EnterWVIDEO_
0215:0268+     __WD_Present
Module: /opt/watcom/lib286/dos/clibl.lib(___argc)
0215:0272      ____Argv
0215:0276      ____Argc
Module: /opt/watcom/lib286/dos/clibl.lib(exit)
0000:2105+     __null_int23_exit_
0000:2106      exit_
0000:2135*     _exit_
0215:026a+     ___int23_exit
0215:026e+     ___FPE_handler_exit
Module: /opt/watcom/lib286/dos/clibl.lib(sgdef086)
0215:0272      __Start_XI
0215:0272      __End_XI
0215:0272      __Start_YI
0215:0272      __End_YI


                        +--------------------+
                        |   Libraries Used   |
                        +--------------------+

/opt/watcom/lib286/dos/clibl.lib


                        +-----------------------+
                        |   Linker Statistics   |
                        +-----------------------+

Stack size:  0800 (2048.)
Memory size:  2bd0 (11216.)
Entry point address: 0000:1d00
Link time: 00:00.60
